(dp0
S'James Lee'
p1
ccopy_reg
_reconstructor
p2
(cathlete_list
AthleteList
p3
c__builtin__
list
p4
(lp5
S'2-34'
p6
aS'3:21'
p7
aS'2.34'
p8
aS'2.45'
p9
aS'3.01'
p10
aS'2:01'
p11
aS'2:01'
p12
aS'3:10'
p13
aS'2-22'
p14
aS'2-01'
p15
aS'2.01'
p16
aS'2:16'
p17
atp18
Rp19
(dp20
S'dob'
p21
S'2002-3-14'
p22
sS'name'
p23
g1
sS'times'
p24
(lp25
g6
ag7
ag8
ag9
ag10
ag11
ag12
ag13
ag14
ag15
ag16
ag17
asbsS'Sarah Sweeney'
p26
g2
(g3
g4
(lp27
S'2:58'
p28
aS'2.58'
p29
aS'2:39'
p30
aS'2-25'
p31
aS'2-55'
p32
aS'2:54'
p33
aS'2.18'
p34
aS'2:55'
p35
aS'2:55'
p36
aS'2:22'
p37
aS'2-21'
p38
aS'2.22'
p39
atp40
Rp41
(dp42
g21
S'2002-6-17'
p43
sg23
g26
sg24
(lp44
g28
ag29
ag30
ag31
ag32
ag33
ag34
ag35
ag36
ag37
ag38
ag39
asbsS'Julie Jones'
p45
g2
(g3
g4
(lp46
S'2.59'
p47
aS'2.11'
p48
aS'2:11'
p49
aS'2:23'
p50
aS'3-10'
p51
aS'2-23'
p52
aS'3:10'
p53
aS'3.21'
p54
aS'3-21'
p55
aS'3.01'
p56
aS'3.02'
p57
aS'2:59'
p58
atp59
Rp60
(dp61
g21
S'2002-8-17'
p62
sg23
g45
sg24
(lp63
g47
ag48
ag49
ag50
ag51
ag52
ag53
ag54
ag55
ag56
ag57
ag58
asbsS'Mikey McManus'
p64
g2
(g3
g4
(lp65
S'2:22'
p66
aS'3.01'
p67
aS'3:01'
p68
aS'3.02'
p69
aS'3:02'
p70
aS'3.02'
p71
aS'3:22'
p72
aS'2.49'
p73
aS'2:38'
p74
aS'2:40'
p75
aS'2.22'
p76
aS'2-31'
p77
atp78
Rp79
(dp80
g21
S'2002-2-24'
p81
sg23
g64
sg24
(lp82
g66
ag67
ag68
ag69
ag70
ag71
ag72
ag73
ag74
ag75
ag76
ag77
asbs.